(dp0
S'isShellCmd'
p1
I00
sS'cmd'
p2
(lp3
S'/home/skevin/TOOLS/manta-1.2.1.centos6_x86_64/libexec/SummarizeSVLoci'
p4
aS'--global'
p5
aS'--graph-file'
p6
aS'/dataVolume/storage/rb_pipeline/MantaWorkflow/workspace/svLocusGraph.bin'
p7
aS'--output-file'
p8
aS'/dataVolume/storage/rb_pipeline/MantaWorkflow/results/stats/svLocusGraphStats.tsv'
p9
asS'errFile'
p10
S'/dataVolume/storage/rb_pipeline/MantaWorkflow/workspace/pyflow.data/logs/pyflow_tasks_stderr_log.txt'
p11
sS'outFile'
p12
S'/dataVolume/storage/rb_pipeline/MantaWorkflow/workspace/pyflow.data/logs/pyflow_tasks_stdout_log.txt'
p13
sS'env'
p14
NsS'nCores'
p15
I1
sS'cwd'
p16
S''
p17
s.