(dp0
S'isShellCmd'
p1
I00
sS'cmd'
p2
(lp3
S'/home/skevin/TOOLS/manta-1.2.1.centos6_x86_64/libexec/MergeEdgeStats'
p4
aS'--stats-file-list'
p5
aS'/dataVolume/storage/rb_pipeline/MantaWorkflow/workspace/svHyGen/list.edgeStats.txt'
p6
aS'--output-file'
p7
aS'/dataVolume/storage/rb_pipeline/MantaWorkflow/results/stats/svCandidateGenerationStats.xml'
p8
aS'--report-file'
p9
aS'/dataVolume/storage/rb_pipeline/MantaWorkflow/results/stats/svCandidateGenerationStats.tsv'
p10
asS'errFile'
p11
S'/dataVolume/storage/rb_pipeline/MantaWorkflow/workspace/pyflow.data/logs/pyflow_tasks_stderr_log.txt'
p12
sS'outFile'
p13
S'/dataVolume/storage/rb_pipeline/MantaWorkflow/workspace/pyflow.data/logs/pyflow_tasks_stdout_log.txt'
p14
sS'env'
p15
NsS'nCores'
p16
I1
sS'cwd'
p17
S''
p18
s.