(dp0
S'isShellCmd'
p1
I00
sS'cmd'
p2
(lp3
S'/home/skevin/TOOLS/manta-1.2.1.centos6_x86_64/libexec/SummarizeAlignmentStats'
p4
aS'--align-stats'
p5
aS'/dataVolume/storage/rb_pipeline/MantaWorkflow/workspace/alignmentStats.xml'
p6
aS'--output-file'
p7
aS'/dataVolume/storage/rb_pipeline/MantaWorkflow/results/stats/alignmentStatsSummary.txt'
p8
asS'errFile'
p9
S'/dataVolume/storage/rb_pipeline/MantaWorkflow/workspace/pyflow.data/logs/pyflow_tasks_stderr_log.txt'
p10
sS'outFile'
p11
S'/dataVolume/storage/rb_pipeline/MantaWorkflow/workspace/pyflow.data/logs/pyflow_tasks_stdout_log.txt'
p12
sS'env'
p13
NsS'nCores'
p14
I1
sS'cwd'
p15
S''
p16
s.