(dp0
S'isShellCmd'
p1
I00
sS'cmd'
p2
(lp3
S'/home/skevin/TOOLS/manta-1.2.1.centos6_x86_64/libexec/GetAlignmentStats'
p4
aS'--ref'
p5
aS'/dataVolume/storage/Homo_sapiens/UCSC/hg19/Sequence/WholeGenomeFasta/genome.fa'
p6
aS'--output-file'
p7
aS'/dataVolume/storage/rb_pipeline/MantaWorkflow/workspace/alignmentStats.xml.tmpdir/alignmentStats.xml.001.xml'
p8
aS'--align-file'
p9
aS'/dataVolume/storage/rb_pipeline/output/picard/49-T_1_removed_duplicates.bam'
p10
asS'errFile'
p11
S'/dataVolume/storage/rb_pipeline/MantaWorkflow/workspace/pyflow.data/logs/pyflow_tasks_stderr_log.txt'
p12
sS'outFile'
p13
S'/dataVolume/storage/rb_pipeline/MantaWorkflow/workspace/pyflow.data/logs/pyflow_tasks_stdout_log.txt'
p14
sS'env'
p15
NsS'nCores'
p16
I1
sS'cwd'
p17
S''
p18
s.