(dp0
S'isShellCmd'
p1
I01
sS'cmd'
p2
S'"/usr/bin/python" -E "/home/skevin/TOOLS/manta-1.2.1.centos6_x86_64/libexec/vcfCmdlineSwapper.py" "/home/skevin/TOOLS/manta-1.2.1.centos6_x86_64/bin/configManta.py --normalBam=output/picard/49-N_1_removed_duplicates.bam --tumorBam=output/picard/49-T_1_removed_duplicates.bam --exome --referenceFasta=../Homo_sapiens/UCSC/hg19/Sequence/WholeGenomeFasta/genome.fa" < "/dataVolume/storage/rb_pipeline/MantaWorkflow/workspace/svHyGen/diploidSV.0000.vcf" > "/dataVolume/storage/rb_pipeline/MantaWorkflow/workspace/svHyGen/diploidSV.0000.vcf.reheader.tmp" && mv "/dataVolume/storage/rb_pipeline/MantaWorkflow/workspace/svHyGen/diploidSV.0000.vcf.reheader.tmp" "/dataVolume/storage/rb_pipeline/MantaWorkflow/workspace/svHyGen/diploidSV.0000.vcf"'
p3
sS'errFile'
p4
S'/dataVolume/storage/rb_pipeline/MantaWorkflow/workspace/pyflow.data/logs/pyflow_tasks_stderr_log.txt'
p5
sS'outFile'
p6
S'/dataVolume/storage/rb_pipeline/MantaWorkflow/workspace/pyflow.data/logs/pyflow_tasks_stdout_log.txt'
p7
sS'env'
p8
NsS'nCores'
p9
I1
sS'cwd'
p10
S''
p11
s.