(dp0
S'isShellCmd'
p1
I01
sS'cmd'
p2
S'"/usr/bin/python" -E "/home/skevin/TOOLS/manta-1.2.1.centos6_x86_64/libexec/sortVcf.py" -f "/dataVolume/storage/rb_pipeline/MantaWorkflow/workspace/svHyGen/list.sortSomaticSV.txt" | "/home/skevin/TOOLS/manta-1.2.1.centos6_x86_64/libexec/bgzip" -c > "/dataVolume/storage/rb_pipeline/MantaWorkflow/results/variants/somaticSV.vcf.gz"'
p3
sS'errFile'
p4
S'/dataVolume/storage/rb_pipeline/MantaWorkflow/workspace/pyflow.data/logs/pyflow_tasks_stderr_log.txt'
p5
sS'outFile'
p6
S'/dataVolume/storage/rb_pipeline/MantaWorkflow/workspace/pyflow.data/logs/pyflow_tasks_stdout_log.txt'
p7
sS'env'
p8
NsS'nCores'
p9
I1
sS'cwd'
p10
S''
p11
s.