(dp0
S'isShellCmd'
p1
I00
sS'cmd'
p2
(lp3
S'/home/skevin/TOOLS/manta-1.2.1.centos6_x86_64/libexec/GenerateSVCandidates'
p4
aS'--align-stats'
p5
aS'/dataVolume/storage/rb_pipeline/MantaWorkflow/workspace/alignmentStats.xml'
p6
aS'--graph-file'
p7
aS'/dataVolume/storage/rb_pipeline/MantaWorkflow/workspace/svLocusGraph.bin'
p8
aS'--bin-index'
p9
aS'241'
p10
aS'--bin-count'
p11
aS'256'
p12
aS'--min-candidate-sv-size'
p13
aS'8'
p14
aS'--min-candidate-spanning-count'
p15
aS'3'
p16
aS'--min-scored-sv-size'
p17
aS'51'
p18
aS'--ref'
p19
aS'/dataVolume/storage/Homo_sapiens/UCSC/hg19/Sequence/WholeGenomeFasta/genome.fa'
p20
aS'--candidate-output-file'
p21
aS'/dataVolume/storage/rb_pipeline/MantaWorkflow/workspace/svHyGen/candidateSV.0241.vcf'
p22
aS'--diploid-output-file'
p23
aS'/dataVolume/storage/rb_pipeline/MantaWorkflow/workspace/svHyGen/diploidSV.0241.vcf'
p24
aS'--min-qual-score'
p25
aS'10'
p26
aS'--min-pass-qual-score'
p27
aS'20'
p28
aS'--min-pass-gt-score'
p29
aS'15'
p30
aS'--somatic-output-file'
p31
aS'/dataVolume/storage/rb_pipeline/MantaWorkflow/workspace/svHyGen/somaticSV.0241.vcf'
p32
aS'--min-somatic-score'
p33
aS'10'
p34
aS'--min-pass-somatic-score'
p35
aS'30'
p36
aS'--skip-remote-reads'
p37
aS'--edge-runtime-log'
p38
aS'/dataVolume/storage/rb_pipeline/MantaWorkflow/workspace/svHyGen/edgeRuntimeLog.0241.txt'
p39
aS'--edge-stats-log'
p40
aS'/dataVolume/storage/rb_pipeline/MantaWorkflow/workspace/svHyGen/edgeStats.0241.xml'
p41
aS'--align-file'
p42
aS'/dataVolume/storage/rb_pipeline/output/picard/49-N_1_removed_duplicates.bam'
p43
aS'--tumor-align-file'
p44
aS'/dataVolume/storage/rb_pipeline/output/picard/49-T_1_removed_duplicates.bam'
p45
asS'errFile'
p46
S'/dataVolume/storage/rb_pipeline/MantaWorkflow/workspace/pyflow.data/logs/pyflow_tasks_stderr_log.txt'
p47
sS'outFile'
p48
S'/dataVolume/storage/rb_pipeline/MantaWorkflow/workspace/pyflow.data/logs/pyflow_tasks_stdout_log.txt'
p49
sS'env'
p50
NsS'nCores'
p51
I1
sS'cwd'
p52
S''
p53
s.