(dp0
S'isShellCmd'
p1
I00
sS'cmd'
p2
(lp3
S'/home/skevin/TOOLS/manta-1.2.1.centos6_x86_64/libexec/EstimateSVLoci'
p4
aS'--output-file'
p5
aS'/dataVolume/storage/rb_pipeline/MantaWorkflow/workspace/svLocusGraph.bin.tmpdir/svLocusGraph.chromId_010_chr10_0005.bin'
p6
aS'--align-stats'
p7
aS'/dataVolume/storage/rb_pipeline/MantaWorkflow/workspace/alignmentStats.xml'
p8
aS'--region'
p9
aS'chr10:56472814-67767375'
p10
aS'--min-candidate-sv-size'
p11
aS'8'
p12
aS'--min-edge-observations'
p13
aS'3'
p14
aS'--ref'
p15
aS'/dataVolume/storage/Homo_sapiens/UCSC/hg19/Sequence/WholeGenomeFasta/genome.fa'
p16
aS'--align-file'
p17
aS'/dataVolume/storage/rb_pipeline/output/picard/49-N_1_removed_duplicates.bam'
p18
aS'--tumor-align-file'
p19
aS'/dataVolume/storage/rb_pipeline/output/picard/49-T_1_removed_duplicates.bam'
p20
asS'errFile'
p21
S'/dataVolume/storage/rb_pipeline/MantaWorkflow/workspace/pyflow.data/logs/pyflow_tasks_stderr_log.txt'
p22
sS'outFile'
p23
S'/dataVolume/storage/rb_pipeline/MantaWorkflow/workspace/pyflow.data/logs/pyflow_tasks_stdout_log.txt'
p24
sS'env'
p25
NsS'nCores'
p26
I1
sS'cwd'
p27
S''
p28
s.